target datalayout = "e-m:e-p270:32:32-p271:32:32-p272:64:64-i64:64-i128:128-f80:128-n8:16:32:64-S128"
target triple = "x86_64-pc-linux-gnu"

%union.pthread_mutex_t = type { %struct.__pthread_mutex_s }
%struct.__pthread_mutex_s = type { i32, i32, i32, i32, i32, i16, i16, %struct.__pthread_internal_list }
%struct.__pthread_internal_list = type { ptr, ptr }
%struct.sockaddr_storage = type { i16, [118 x i8], i64 }
%struct.slurm_msg = type { %struct.sockaddr_storage, ptr, i32, i32, i32, i8, i32, i8, i32, ptr, ptr, i32, ptr, ptr, i16, i8, i16, i16, %struct.forward, ptr, %struct.sockaddr_storage, ptr }
%struct.forward = type { %struct.slurm_node_alias_addrs_t, i16, i16, ptr, i32, i16, i16 }
%struct.slurm_node_alias_addrs_t = type { i64, ptr, ptr, i32, ptr }

@stepmgr_mutex = dso_local global %union.pthread_mutex_t zeroinitializer, align 8
@.str.22 = private unnamed_addr constant [29 x i8] c"%s: pthread_mutex_lock(): %m\00", align 1
@.str.23 = private unnamed_addr constant [31 x i8] c"%s: pthread_mutex_unlock(): %m\00", align 1
@job_step_ptr = external global ptr, align 8
@__func__._handle_step_layout = private unnamed_addr constant [20 x i8] c"_handle_step_layout\00", align 1

; Function Attrs: nounwind uwtable
define internal i32 @_handle_step_layout(i32 noundef %0, ptr noundef %1, i32 noundef %2) #0 {
  %4 = alloca i32, align 4
  %5 = alloca ptr, align 8
  %6 = alloca i32, align 4
  %7 = alloca i32, align 4
  %8 = alloca %struct.slurm_msg, align 8
  %9 = alloca ptr, align 8
  %10 = alloca ptr, align 8
  %11 = alloca i32, align 4
  %12 = alloca i32, align 4
  store i32 %0, ptr %4, align 4
  store ptr %1, ptr %5, align 8
  store i32 %2, ptr %6, align 4
  call void @llvm.lifetime.start.p0(i64 4, ptr %7) #10
  call void @llvm.lifetime.start.p0(i64 424, ptr %8) #10
  call void @llvm.lifetime.start.p0(i64 8, ptr %9) #10
  call void @llvm.lifetime.start.p0(i64 8, ptr %10) #10
  store ptr null, ptr %10, align 8
  %13 = load i32, ptr %4, align 4
  %14 = load i32, ptr %6, align 4
  %15 = call i32 @_handle_stepmgr_relay_msg(i32 noundef %13, i32 noundef %14, ptr noundef %8, i16 noundef zeroext 5021, i1 noundef zeroext true)
  store i32 %15, ptr %7, align 4
  %16 = icmp ne i32 %15, 0
  br i1 %16, label %17, label %18

17:                                               ; preds = %3
  br label %55

18:                                               ; preds = %3
  %19 = getelementptr inbounds nuw %struct.slurm_msg, ptr %8, i32 0, i32 13
  %20 = load ptr, ptr %19, align 8
  store ptr %20, ptr %9, align 8
  br label %21

21:                                               ; preds = %18
  call void @llvm.lifetime.start.p0(i64 4, ptr %11) #10
  %22 = call i32 @pthread_mutex_lock(ptr noundef @stepmgr_mutex) #10
  store i32 %22, ptr %11, align 4
  %23 = load i32, ptr %11, align 4
  %24 = icmp ne i32 %23, 0
  br i1 %24, label %25, label %28

25:                                               ; preds = %21
  %26 = load i32, ptr %11, align 4
  %27 = call ptr @__errno_location() #11
  store i32 %26, ptr %27, align 4
  call void (ptr, ...) @fatal_abort(ptr noundef @.str.22, ptr noundef @__func__._handle_step_layout) #12
  unreachable

28:                                               ; preds = %21
  call void @llvm.lifetime.end.p0(i64 4, ptr %11) #10
  br label %29

29:                                               ; preds = %28
  br label %30

30:                                               ; preds = %29
  %31 = load ptr, ptr @job_step_ptr, align 8
  %32 = load ptr, ptr %9, align 8
  %33 = call i32 @stepmgr_get_step_layouts(ptr noundef %31, ptr noundef %32, ptr noundef %10)
  store i32 %33, ptr %7, align 4
  br label %34

34:                                               ; preds = %30
  call void @llvm.lifetime.start.p0(i64 4, ptr %12) #10
  %35 = call i32 @pthread_mutex_unlock(ptr noundef @stepmgr_mutex) #10
  store i32 %35, ptr %12, align 4
  %36 = load i32, ptr %12, align 4
  %37 = icmp ne i32 %36, 0
  br i1 %37, label %38, label %41

38:                                               ; preds = %34
  %39 = load i32, ptr %12, align 4
  %40 = call ptr @__errno_location() #11
  store i32 %39, ptr %40, align 4
  call void (ptr, ...) @fatal_abort(ptr noundef @.str.23, ptr noundef @__func__._handle_step_layout) #12
  unreachable

41:                                               ; preds = %34
  call void @llvm.lifetime.end.p0(i64 4, ptr %12) #10
  br label %42

42:                                               ; preds = %41
  br label %43

43:                                               ; preds = %42
  %44 = load i32, ptr %7, align 4
  %45 = icmp ne i32 %44, 0
  br i1 %45, label %51, label %46

46:                                               ; preds = %43
  %47 = load ptr, ptr %10, align 8
  %48 = call i32 @send_msg_response(ptr noundef %8, i32 noundef 5022, ptr noundef %47)
  %49 = load ptr, ptr %10, align 8
  %50 = call i32 @slurm_step_layout_destroy(ptr noundef %49)
  br label %54

51:                                               ; preds = %43
  %52 = load i32, ptr %7, align 4
  %53 = call i32 @slurm_send_rc_msg(ptr noundef %8, i32 noundef %52)
  br label %54

54:                                               ; preds = %51, %46
  call void @slurm_free_msg_members(ptr noundef %8)
  br label %55

55:                                               ; preds = %54, %17
  %56 = load i32, ptr %7, align 4
  call void @llvm.lifetime.end.p0(i64 8, ptr %10) #10
  call void @llvm.lifetime.end.p0(i64 8, ptr %9) #10
  call void @llvm.lifetime.end.p0(i64 424, ptr %8) #10
  call void @llvm.lifetime.end.p0(i64 4, ptr %7) #10
  ret i32 %56
}