; Function Attrs: nounwind uwtable
define internal fastcc void @_handle_step_layout(i32 noundef %0, i32 noundef %1) unnamed_addr #0 {
  %3 = alloca %struct.slurm_msg, align 8
  %4 = alloca ptr, align 8
  call void @llvm.lifetime.start.p0(i64 424, ptr nonnull %3) #13
  call void @llvm.lifetime.start.p0(i64 8, ptr nonnull %4) #13
  store ptr null, ptr %4, align 8
  %5 = call fastcc i32 @_handle_stepmgr_relay_msg(i32 noundef %0, i32 noundef %1, ptr noundef %3, i16 noundef zeroext 5021, i1 noundef zeroext true)
  %.not = icmp eq i32 %5, 0
  br i1 %.not, label %6, label %27

6:                                                ; preds = %2
  %7 = getelementptr inbounds nuw i8, ptr %3, i64 200
  %8 = load ptr, ptr %7, align 8
  %9 = call i32 @pthread_mutex_lock(ptr noundef nonnull @stepmgr_mutex) #13
  %.not13 = icmp eq i32 %9, 0
  br i1 %.not13, label %12, label %10

10:                                               ; preds = %6
  %11 = tail call ptr @__errno_location() #14
  store i32 %9, ptr %11, align 4
  call void (ptr, ...) @fatal_abort(ptr noundef nonnull @.str.22, ptr noundef nonnull @__func__._handle_step_layout) #15
  unreachable

12:                                               ; preds = %6
  %13 = load ptr, ptr @job_step_ptr, align 8
  %14 = call i32 @stepmgr_get_step_layouts(ptr noundef %13, ptr noundef %8, ptr noundef nonnull %4) #13
  %15 = call i32 @pthread_mutex_unlock(ptr noundef nonnull @stepmgr_mutex) #13
  %.not14 = icmp eq i32 %15, 0
  br i1 %.not14, label %18, label %16

16:                                               ; preds = %12
  %17 = tail call ptr @__errno_location() #14
  store i32 %15, ptr %17, align 4
  call void (ptr, ...) @fatal_abort(ptr noundef nonnull @.str.23, ptr noundef nonnull @__func__._handle_step_layout) #15
  unreachable

18:                                               ; preds = %12
  %.not15 = icmp eq i32 %14, 0
  br i1 %.not15, label %19, label %24

19:                                               ; preds = %18
  %20 = load ptr, ptr %4, align 8
  %21 = call i32 @send_msg_response(ptr noundef nonnull %3, i32 noundef 5022, ptr noundef %20) #13
  %22 = load ptr, ptr %4, align 8
  %23 = call i32 @slurm_step_layout_destroy(ptr noundef %22) #13
  br label %26

24:                                               ; preds = %18
  %25 = call i32 @slurm_send_rc_msg(ptr noundef nonnull %3, i32 noundef %14) #13
  br label %26

26:                                               ; preds = %24, %19
  call void @slurm_free_msg_members(ptr noundef nonnull %3) #13
  br label %27

27:                                               ; preds = %2, %26
  call void @llvm.lifetime.end.p0(i64 8, ptr nonnull %4) #13
  call void @llvm.lifetime.end.p0(i64 424, ptr nonnull %3) #13
  ret void
}